; ModuleID = '55/438.c'
source_filename = "55/438.c"
target datalayout = "e-m:e-p270:32:32-p271:32:32-p272:64:64-i64:64-f80:128-n8:16:32:64-S128"
target triple = "x86_64-pc-linux-gnu"

@.str = private unnamed_addr constant [7 x i8] c"%d%s%d\00", align 1
@.str.1 = private unnamed_addr constant [2 x i8] c"0\00", align 1
@.str.2 = private unnamed_addr constant [3 x i8] c"%c\00", align 1

; Function Attrs: noinline nounwind uwtable
define dso_local void @main() #0 {
  %1 = alloca i32, align 4
  %2 = alloca i32, align 4
  %3 = alloca i32, align 4
  %4 = alloca i32, align 4
  %5 = alloca i32, align 4
  %6 = alloca i64, align 8
  %7 = alloca i64, align 8
  %8 = alloca [70 x i8], align 16
  %9 = call i32 (i8*, ...) @__isoc99_scanf(i8* getelementptr inbounds ([7 x i8], [7 x i8]* @.str, i64 0, i64 0), i32* %1, [70 x i8]* %8, i32* %2)
  %10 = getelementptr inbounds [70 x i8], [70 x i8]* %8, i64 0, i64 0
  %11 = call i64 @strlen(i8* %10) #3
  %12 = trunc i64 %11 to i32
  store i32 %12, i32* %5, align 4
  %13 = load i32, i32* %5, align 4
  %14 = sub nsw i32 %13, 1
  store i32 %14, i32* %3, align 4
  store i64 0, i64* %7, align 8
  store i64 1, i64* %6, align 8
  br label %15

15:                                               ; preds = %93, %0
  %16 = load i32, i32* %3, align 4
  %17 = icmp sge i32 %16, 0
  br i1 %17, label %18, label %100

18:                                               ; preds = %15
  %19 = load i32, i32* %3, align 4
  %20 = sext i32 %19 to i64
  %21 = getelementptr inbounds [70 x i8], [70 x i8]* %8, i64 0, i64 %20
  %22 = load i8, i8* %21, align 1
  %23 = sext i8 %22 to i32
  %24 = icmp sge i32 %23, 97
  br i1 %24, label %25, label %44

25:                                               ; preds = %18
  %26 = load i32, i32* %3, align 4
  %27 = sext i32 %26 to i64
  %28 = getelementptr inbounds [70 x i8], [70 x i8]* %8, i64 0, i64 %27
  %29 = load i8, i8* %28, align 1
  %30 = sext i8 %29 to i32
  %31 = icmp sle i32 %30, 122
  br i1 %31, label %32, label %44

32:                                               ; preds = %25
  %33 = load i32, i32* %3, align 4
  %34 = sext i32 %33 to i64
  %35 = getelementptr inbounds [70 x i8], [70 x i8]* %8, i64 0, i64 %34
  %36 = load i8, i8* %35, align 1
  %37 = sext i8 %36 to i32
  %38 = sub nsw i32 %37, 97
  %39 = add nsw i32 %38, 10
  %40 = trunc i32 %39 to i8
  %41 = load i32, i32* %3, align 4
  %42 = sext i32 %41 to i64
  %43 = getelementptr inbounds [70 x i8], [70 x i8]* %8, i64 0, i64 %42
  store i8 %40, i8* %43, align 1
  br label %83

44:                                               ; preds = %25, %18
  %45 = load i32, i32* %3, align 4
  %46 = sext i32 %45 to i64
  %47 = getelementptr inbounds [70 x i8], [70 x i8]* %8, i64 0, i64 %46
  %48 = load i8, i8* %47, align 1
  %49 = sext i8 %48 to i32
  %50 = icmp sge i32 %49, 65
  br i1 %50, label %51, label %70

51:                                               ; preds = %44
  %52 = load i32, i32* %3, align 4
  %53 = sext i32 %52 to i64
  %54 = getelementptr inbounds [70 x i8], [70 x i8]* %8, i64 0, i64 %53
  %55 = load i8, i8* %54, align 1
  %56 = sext i8 %55 to i32
  %57 = icmp sle i32 %56, 90
  br i1 %57, label %58, label %70

58:                                               ; preds = %51
  %59 = load i32, i32* %3, align 4
  %60 = sext i32 %59 to i64
  %61 = getelementptr inbounds [70 x i8], [70 x i8]* %8, i64 0, i64 %60
  %62 = load i8, i8* %61, align 1
  %63 = sext i8 %62 to i32
  %64 = sub nsw i32 %63, 65
  %65 = add nsw i32 %64, 10
  %66 = trunc i32 %65 to i8
  %67 = load i32, i32* %3, align 4
  %68 = sext i32 %67 to i64
  %69 = getelementptr inbounds [70 x i8], [70 x i8]* %8, i64 0, i64 %68
  store i8 %66, i8* %69, align 1
  br label %82

70:                                               ; preds = %51, %44
  %71 = load i32, i32* %3, align 4
  %72 = sext i32 %71 to i64
  %73 = getelementptr inbounds [70 x i8], [70 x i8]* %8, i64 0, i64 %72
  %74 = load i8, i8* %73, align 1
  %75 = sext i8 %74 to i32
  %76 = sub nsw i32 %75, 48
  %77 = add nsw i32 %76, 0
  %78 = trunc i32 %77 to i8
  %79 = load i32, i32* %3, align 4
  %80 = sext i32 %79 to i64
  %81 = getelementptr inbounds [70 x i8], [70 x i8]* %8, i64 0, i64 %80
  store i8 %78, i8* %81, align 1
  br label %82

82:                                               ; preds = %70, %58
  br label %83

83:                                               ; preds = %82, %32
  %84 = load i64, i64* %7, align 8
  %85 = load i32, i32* %3, align 4
  %86 = sext i32 %85 to i64
  %87 = getelementptr inbounds [70 x i8], [70 x i8]* %8, i64 0, i64 %86
  %88 = load i8, i8* %87, align 1
  %89 = sext i8 %88 to i64
  %90 = load i64, i64* %6, align 8
  %91 = mul nsw i64 %89, %90
  %92 = add nsw i64 %84, %91
  store i64 %92, i64* %7, align 8
  br label %93

93:                                               ; preds = %83
  %94 = load i32, i32* %3, align 4
  %95 = sub nsw i32 %94, 1
  store i32 %95, i32* %3, align 4
  %96 = load i64, i64* %6, align 8
  %97 = load i32, i32* %1, align 4
  %98 = sext i32 %97 to i64
  %99 = mul nsw i64 %96, %98
  store i64 %99, i64* %6, align 8
  br label %15

100:                                              ; preds = %15
  %101 = load i64, i64* %7, align 8
  %102 = icmp eq i64 %101, 0
  br i1 %102, label %103, label %105

103:                                              ; preds = %100
  %104 = call i32 (i8*, ...) @printf(i8* getelementptr inbounds ([2 x i8], [2 x i8]* @.str.1, i64 0, i64 0))
  br label %105

105:                                              ; preds = %103, %100
  store i32 0, i32* %3, align 4
  %106 = load i32, i32* %2, align 4
  %107 = sext i32 %106 to i64
  store i64 %107, i64* %6, align 8
  br label %108

108:                                              ; preds = %149, %105
  %109 = load i64, i64* %7, align 8
  %110 = icmp ne i64 %109, 0
  br i1 %110, label %111, label %155

111:                                              ; preds = %108
  %112 = load i64, i64* %7, align 8
  %113 = load i64, i64* %6, align 8
  %114 = srem i64 %112, %113
  %115 = trunc i64 %114 to i8
  %116 = load i32, i32* %3, align 4
  %117 = sext i32 %116 to i64
  %118 = getelementptr inbounds [70 x i8], [70 x i8]* %8, i64 0, i64 %117
  store i8 %115, i8* %118, align 1
  %119 = load i32, i32* %3, align 4
  %120 = sext i32 %119 to i64
  %121 = getelementptr inbounds [70 x i8], [70 x i8]* %8, i64 0, i64 %120
  %122 = load i8, i8* %121, align 1
  %123 = sext i8 %122 to i32
  %124 = icmp sle i32 %123, 9
  br i1 %124, label %125, label %136

125:                                              ; preds = %111
  %126 = load i32, i32* %3, align 4
  %127 = sext i32 %126 to i64
  %128 = getelementptr inbounds [70 x i8], [70 x i8]* %8, i64 0, i64 %127
  %129 = load i8, i8* %128, align 1
  %130 = sext i8 %129 to i32
  %131 = add nsw i32 %130, 48
  %132 = trunc i32 %131 to i8
  %133 = load i32, i32* %3, align 4
  %134 = sext i32 %133 to i64
  %135 = getelementptr inbounds [70 x i8], [70 x i8]* %8, i64 0, i64 %134
  store i8 %132, i8* %135, align 1
  br label %148

136:                                              ; preds = %111
  %137 = load i32, i32* %3, align 4
  %138 = sext i32 %137 to i64
  %139 = getelementptr inbounds [70 x i8], [70 x i8]* %8, i64 0, i64 %138
  %140 = load i8, i8* %139, align 1
  %141 = sext i8 %140 to i32
  %142 = sub nsw i32 %141, 10
  %143 = add nsw i32 %142, 65
  %144 = trunc i32 %143 to i8
  %145 = load i32, i32* %3, align 4
  %146 = sext i32 %145 to i64
  %147 = getelementptr inbounds [70 x i8], [70 x i8]* %8, i64 0, i64 %146
  store i8 %144, i8* %147, align 1
  br label %148

148:                                              ; preds = %136, %125
  br label %149

149:                                              ; preds = %148
  %150 = load i32, i32* %3, align 4
  %151 = add nsw i32 %150, 1
  store i32 %151, i32* %3, align 4
  %152 = load i64, i64* %7, align 8
  %153 = load i64, i64* %6, align 8
  %154 = sdiv i64 %152, %153
  store i64 %154, i64* %7, align 8
  br label %108

155:                                              ; preds = %108
  %156 = load i32, i32* %3, align 4
  %157 = sub nsw i32 %156, 1
  store i32 %157, i32* %4, align 4
  br label %158

158:                                              ; preds = %168, %155
  %159 = load i32, i32* %4, align 4
  %160 = icmp sge i32 %159, 0
  br i1 %160, label %161, label %171

161:                                              ; preds = %158
  %162 = load i32, i32* %4, align 4
  %163 = sext i32 %162 to i64
  %164 = getelementptr inbounds [70 x i8], [70 x i8]* %8, i64 0, i64 %163
  %165 = load i8, i8* %164, align 1
  %166 = sext i8 %165 to i32
  %167 = call i32 (i8*, ...) @printf(i8* getelementptr inbounds ([3 x i8], [3 x i8]* @.str.2, i64 0, i64 0), i32 %166)
  br label %168

168:                                              ; preds = %161
  %169 = load i32, i32* %4, align 4
  %170 = add nsw i32 %169, -1
  store i32 %170, i32* %4, align 4
  br label %158

171:                                              ; preds = %158
  ret void
}

declare dso_local i32 @__isoc99_scanf(i8*, ...) #1

; Function Attrs: nounwind readonly
declare dso_local i64 @strlen(i8*) #2

declare dso_local i32 @printf(i8*, ...) #1


!llvm.module.flags = !{!0}
!llvm.ident = !{!1}

!0 = !{i32 1, !"wchar_size", i32 4}
!1 = !{!"clang version 10.0.0-4ubuntu1 "}
